; Function Attrs: mustprogress nofree norecurse nosync nounwind willreturn memory(read, inaccessiblemem: none) uwtable
define noundef zeroext i1 @_ZNK12ListedForces14haveRestraintsERK8t_fcdata(ptr noundef nonnull readonly align 8 captures(none) dereferenceable(2912) %0, ptr noundef nonnull readonly align 8 captures(none) dereferenceable(88) %1) local_unnamed_addr #12 align 2 {
  %3 = load ptr, ptr %0, align 8, !tbaa !4
  %4 = getelementptr inbounds nuw i8, ptr %3, i64 1312
  %5 = load ptr, ptr %4, align 8, !tbaa !125
  %6 = getelementptr inbounds nuw i8, ptr %3, i64 1320
  %7 = load ptr, ptr %6, align 8, !tbaa !125
  %8 = icmp eq ptr %5, %7
  br i1 %8, label %9, label %24

9:                                                ; preds = %2
  %10 = getelementptr inbounds nuw i8, ptr %3, i64 1336
  %11 = load ptr, ptr %10, align 8, !tbaa !125
  %12 = getelementptr inbounds nuw i8, ptr %3, i64 1344
  %13 = load ptr, ptr %12, align 8, !tbaa !125
  %14 = icmp ne ptr %11, %13
  %15 = getelementptr inbounds nuw i8, ptr %1, i64 80
  %16 = load ptr, ptr %15, align 8
  %17 = icmp ne ptr %16, null
  %or.cond = select i1 %14, i1 true, i1 %17
  br i1 %or.cond, label %24, label %18

18:                                               ; preds = %9
  %19 = getelementptr inbounds nuw i8, ptr %1, i64 72
  %20 = load ptr, ptr %19, align 8, !tbaa !126
  %21 = getelementptr inbounds nuw i8, ptr %20, i64 28
  %22 = load i32, ptr %21, align 4, !tbaa !141
  %23 = icmp sgt i32 %22, 0
  br label %24

24:                                               ; preds = %18, %9, %2
  %25 = phi i1 [ true, %9 ], [ true, %2 ], [ %23, %18 ]
  ret i1 %25
}